(lp0
(lp1
VCapWatson
p2
aI0
aF-568.4654540949289
aF63.0
aF226.750629266724
aI20
aa(lp3
VDynaMighty
p4
aI14
aF265.3000000119205
aF78.23152379758702
aF-197.34352157207147
aI20
aa(lp5
VDevorus
p6
aI13
aF-552.7787873704323
aF62.40653139262123
aF257.79945453692176
aI19
aa(lp7
VJimiliscious
p8
aI10
aF-279.2755834335548
aF31.0
aF278.5847070708251
aI12
aa.