(lp0
(lp1
VDynaMighty
p2
aI17
aF276.5307981941944
aF49.0
aF-161.89668771405363
aI20
aa(lp3
VJimiliscious
p4
aI15
aF-312.5792714124872
aF62.0
aF286.4821491716692
aI20
aa(lp5
Vlchi
p6
aI2
aF-659.5818025204543
aF25.0
aF259.4283158402925
aI20
aa(lp7
VLolbatros24
p8
aI0
aF-574.5106228716904
aF63.0
aF226.67572301005382
aI20
aa.